target datalayout = "e-m:e-p270:32:32-p271:32:32-p272:64:64-i64:64-i128:128-f80:128-n8:16:32:64-S128"
target triple = "x86_64-pc-linux-gnu"

%struct._asn1_ctx_t = type { i32, i32, i8, ptr, ptr, ptr, ptr, ptr, %struct.anon.2, %struct.anon.5, %struct.anon.6, ptr }
%struct.anon.2 = type { i32, i8, i8, i8, ptr, ptr, i32, i32, ptr, ptr, ptr, %union.anon }
%union.anon = type { %struct.anon.3 }
%struct.anon.3 = type { ptr }
%struct.anon.5 = type { ptr, ptr, ptr }
%struct.anon.6 = type { i32, i8, ptr, i32, i32, ptr, ptr, ptr, %union.anon.7 }
%union.anon.7 = type { %struct.anon.8 }
%struct.anon.8 = type { ptr }

@ett_ldap_DirSyncFlagsSubEntry = internal global i32 0, align 4
@dissect_ldap_DirSyncFlags.flags = internal constant [5 x ptr] [ptr @hf_ldap_object_security_flag, ptr @hf_ldap_ancestor_first_flag, ptr @hf_ldap_public_data_only_flag, ptr @hf_ldap_incremental_value_flag, ptr null], align 16

; Function Attrs: null_pointer_is_valid sspstrong uwtable
define internal i32 @dissect_ldap_DirSyncFlags(i1 noundef zeroext %0, ptr noundef %1, i32 noundef %2, ptr noundef %3, ptr noundef %4, i32 noundef %5) #0 {
  %7 = alloca i8, align 1
  %8 = alloca ptr, align 8
  %9 = alloca i32, align 4
  %10 = alloca ptr, align 8
  %11 = alloca ptr, align 8
  %12 = alloca i32, align 4
  %13 = alloca i8, align 1
  %14 = alloca i8, align 1
  %15 = alloca i32, align 4
  %16 = alloca i32, align 4
  %17 = alloca i32, align 4
  %18 = alloca i32, align 4
  %19 = alloca i32, align 4
  %20 = zext i1 %0 to i8
  store i8 %20, ptr %7, align 1
  store ptr %1, ptr %8, align 8
  store i32 %2, ptr %9, align 4
  store ptr %3, ptr %10, align 8
  store ptr %4, ptr %11, align 8
  store i32 %5, ptr %12, align 4
  call void @llvm.lifetime.start.p0(i64 1, ptr %13) #16
  call void @llvm.lifetime.start.p0(i64 1, ptr %14) #16
  call void @llvm.lifetime.start.p0(i64 4, ptr %15) #16
  call void @llvm.lifetime.start.p0(i64 4, ptr %16) #16
  call void @llvm.lifetime.start.p0(i64 4, ptr %17) #16
  call void @llvm.lifetime.start.p0(i64 4, ptr %18) #16
  %21 = load i32, ptr %9, align 4
  store i32 %21, ptr %18, align 4
  %22 = load i8, ptr %7, align 1, !range !6, !noundef !7
  %23 = trunc i8 %22 to i1
  br i1 %23, label %39, label %24

24:                                               ; preds = %6
  %25 = load ptr, ptr %10, align 8
  %26 = getelementptr inbounds nuw %struct._asn1_ctx_t, ptr %25, i32 0, i32 3
  %27 = load ptr, ptr %26, align 8
  %28 = load ptr, ptr %11, align 8
  %29 = load ptr, ptr %8, align 8
  %30 = load i32, ptr %18, align 4
  %31 = call i32 @dissect_ber_identifier(ptr noundef %27, ptr noundef %28, ptr noundef %29, i32 noundef %30, ptr noundef %13, ptr noundef %14, ptr noundef %15)
  %32 = load ptr, ptr %10, align 8
  %33 = getelementptr inbounds nuw %struct._asn1_ctx_t, ptr %32, i32 0, i32 3
  %34 = load ptr, ptr %33, align 8
  %35 = load ptr, ptr %11, align 8
  %36 = load ptr, ptr %8, align 8
  %37 = load i32, ptr %9, align 4
  %38 = call i32 @dissect_ber_length(ptr noundef %34, ptr noundef %35, ptr noundef %36, i32 noundef %37, ptr noundef %16, ptr noundef null)
  store i32 %38, ptr %18, align 4
  br label %50

39:                                               ; preds = %6
  call void @llvm.lifetime.start.p0(i64 4, ptr %19) #16
  %40 = load ptr, ptr %8, align 8
  %41 = load i32, ptr %9, align 4
  %42 = call i32 @tvb_reported_length_remaining(ptr noundef %40, i32 noundef %41)
  store i32 %42, ptr %19, align 4
  %43 = load i32, ptr %19, align 4
  %44 = icmp sgt i32 %43, 0
  br i1 %44, label %45, label %47

45:                                               ; preds = %39
  %46 = load i32, ptr %19, align 4
  br label %48

47:                                               ; preds = %39
  br label %48

48:                                               ; preds = %47, %45
  %49 = phi i32 [ %46, %45 ], [ 0, %47 ]
  store i32 %49, ptr %16, align 4
  call void @llvm.lifetime.end.p0(i64 4, ptr %19) #16
  br label %50

50:                                               ; preds = %48, %24
  %51 = load i8, ptr %7, align 1, !range !6, !noundef !7
  %52 = trunc i8 %51 to i1
  %53 = load ptr, ptr %10, align 8
  %54 = load ptr, ptr %11, align 8
  %55 = load ptr, ptr %8, align 8
  %56 = load i32, ptr %9, align 4
  %57 = call i32 @dissect_ber_integer(i1 noundef zeroext %52, ptr noundef %53, ptr noundef %54, ptr noundef %55, i32 noundef %56, i32 noundef -1, ptr noundef %17)
  store i32 %57, ptr %9, align 4
  %58 = load i32, ptr %17, align 4
  %59 = icmp sgt i32 %58, 0
  br i1 %59, label %60, label %70

60:                                               ; preds = %50
  %61 = load ptr, ptr %11, align 8
  %62 = load ptr, ptr %8, align 8
  %63 = load i32, ptr %18, align 4
  %64 = add i32 %63, 1
  %65 = load i32, ptr %12, align 4
  %66 = load i32, ptr @ett_ldap_DirSyncFlagsSubEntry, align 4
  %67 = load i32, ptr %17, align 4
  %68 = sext i32 %67 to i64
  %69 = call ptr @proto_tree_add_bitmask_value_with_flags(ptr noundef %61, ptr noundef %62, i32 noundef %64, i32 noundef %65, i32 noundef %66, ptr noundef @dissect_ldap_DirSyncFlags.flags, i64 noundef %68, i32 noundef 1)
  br label %79

70:                                               ; preds = %50
  %71 = load ptr, ptr %11, align 8
  %72 = load i32, ptr %12, align 4
  %73 = load ptr, ptr %8, align 8
  %74 = load i32, ptr %18, align 4
  %75 = load i32, ptr %16, align 4
  %76 = add i32 %74, %75
  %77 = load i32, ptr %16, align 4
  %78 = call ptr @proto_tree_add_uint(ptr noundef %71, i32 noundef %72, ptr noundef %73, i32 noundef %76, i32 noundef %77, i32 noundef 0)
  br label %79

79:                                               ; preds = %70, %60
  %80 = load i32, ptr %9, align 4
  call void @llvm.lifetime.end.p0(i64 4, ptr %18) #16
  call void @llvm.lifetime.end.p0(i64 4, ptr %17) #16
  call void @llvm.lifetime.end.p0(i64 4, ptr %16) #16
  call void @llvm.lifetime.end.p0(i64 4, ptr %15) #16
  call void @llvm.lifetime.end.p0(i64 1, ptr %14) #16
  call void @llvm.lifetime.end.p0(i64 1, ptr %13) #16
  ret i32 %80
}