; Function Attrs: null_pointer_is_valid sspstrong uwtable
define internal i32 @dissect_ldap_DirSyncFlags(i1 noundef zeroext %0, ptr noundef %1, i32 noundef %2, ptr noundef %3, ptr noundef %4, i32 noundef %5) #0 {
  %7 = alloca i8, align 1
  %8 = alloca i8, align 1
  %9 = alloca i32, align 4
  %10 = alloca i32, align 4
  %11 = alloca i32, align 4
  call void @llvm.lifetime.start.p0(i64 1, ptr nonnull %7) #14
  call void @llvm.lifetime.start.p0(i64 1, ptr nonnull %8) #14
  call void @llvm.lifetime.start.p0(i64 4, ptr nonnull %9) #14
  call void @llvm.lifetime.start.p0(i64 4, ptr nonnull %10) #14
  call void @llvm.lifetime.start.p0(i64 4, ptr nonnull %11) #14
  br i1 %0, label %18, label %12

12:                                               ; preds = %6
  %13 = getelementptr inbounds nuw i8, ptr %3, i64 16
  %14 = load ptr, ptr %13, align 8
  %15 = call i32 @dissect_ber_identifier(ptr noundef %14, ptr noundef %4, ptr noundef %1, i32 noundef %2, ptr noundef nonnull %7, ptr noundef nonnull %8, ptr noundef nonnull %9)
  %16 = load ptr, ptr %13, align 8
  %17 = call i32 @dissect_ber_length(ptr noundef %16, ptr noundef %4, ptr noundef %1, i32 noundef %2, ptr noundef nonnull %10, ptr noundef null)
  br label %21

18:                                               ; preds = %6
  %19 = tail call i32 @tvb_reported_length_remaining(ptr noundef %1, i32 noundef %2)
  %20 = tail call i32 @llvm.smax.i32(i32 %19, i32 0)
  store i32 %20, ptr %10, align 4
  br label %21

21:                                               ; preds = %18, %12
  %.0 = phi i32 [ %2, %18 ], [ %17, %12 ]
  %22 = call i32 @dissect_ber_integer(i1 noundef zeroext %0, ptr noundef %3, ptr noundef %4, ptr noundef %1, i32 noundef %2, i32 noundef -1, ptr noundef nonnull %11)
  %23 = load i32, ptr %11, align 4
  %24 = icmp sgt i32 %23, 0
  br i1 %24, label %25, label %30

25:                                               ; preds = %21
  %26 = add i32 %.0, 1
  %27 = load i32, ptr @ett_ldap_DirSyncFlagsSubEntry, align 4
  %28 = zext nneg i32 %23 to i64
  %29 = call ptr @proto_tree_add_bitmask_value_with_flags(ptr noundef %4, ptr noundef %1, i32 noundef %26, i32 noundef %5, i32 noundef %27, ptr noundef nonnull @dissect_ldap_DirSyncFlags.flags, i64 noundef %28, i32 noundef 1)
  br label %34

30:                                               ; preds = %21
  %31 = load i32, ptr %10, align 4
  %32 = add i32 %31, %.0
  %33 = call ptr @proto_tree_add_uint(ptr noundef %4, i32 noundef %5, ptr noundef %1, i32 noundef %32, i32 noundef %31, i32 noundef 0)
  br label %34

34:                                               ; preds = %30, %25
  call void @llvm.lifetime.end.p0(i64 4, ptr nonnull %11) #14
  call void @llvm.lifetime.end.p0(i64 4, ptr nonnull %10) #14
  call void @llvm.lifetime.end.p0(i64 4, ptr nonnull %9) #14
  call void @llvm.lifetime.end.p0(i64 1, ptr nonnull %8) #14
  call void @llvm.lifetime.end.p0(i64 1, ptr nonnull %7) #14
  ret i32 %22
}